; Function Attrs: mustprogress nofree norecurse nosync nounwind willreturn memory(argmem: readwrite) uwtable
define hidden void @_ZN6google8protobuf7strings15ArrayByteSource4SkipEm(ptr noundef nonnull align 8 captures(none) dereferenceable(24) %0, i64 noundef %1) unnamed_addr #13 align 2 personality ptr @__gxx_personality_v0 {
  %3 = getelementptr inbounds nuw i8, ptr %0, i64 8
  %4 = load ptr, ptr %3, align 8, !tbaa !33
  %5 = getelementptr inbounds nuw i8, ptr %4, i64 %1
  store ptr %5, ptr %3, align 8, !tbaa !33
  %6 = getelementptr inbounds nuw i8, ptr %0, i64 16
  %7 = load i64, ptr %6, align 8, !tbaa !30
  %8 = sub i64 %7, %1
  store i64 %8, ptr %6, align 8, !tbaa !30
  ret void
}